Certificate:
    Data:
        Version: 3 (0x2)
        Serial Number: 1 (0x1)
    Signature Algorithm: sha1WithRSAEncryption
        Issuer: C=cn, ST=cn, L=cn, O=cn, OU=Certification Authority for tipfocus, CN=tipfocus/emailAddress=ca@tipfocus
        Validity
            Not Before: May  2 08:18:11 2013 GMT
            Not After : May  2 08:18:11 2014 GMT
        Subject: C=DE, L=Berlin, CN=om
        Subject Public Key Info:
            Public Key Algorithm: rsaEncryption
                Public-Key: (1024 bit)
                Modulus:
                    00:b6:ed:bc:bf:5e:a7:ab:dd:29:9b:c9:fe:2e:1c:
                    3b:0e:2a:dd:ee:f3:b8:9a:c7:b6:49:79:ac:5e:b2:
                    61:b8:d2:55:6b:9d:fc:a5:7c:93:43:9d:cc:58:19:
                    b7:e0:08:3f:44:4e:f5:ba:f3:97:5a:bb:ec:2a:72:
                    ef:50:f7:36:9c:38:d5:b7:72:f7:df:81:c1:81:b9:
                    71:55:a5:3d:b8:09:52:fa:d5:42:e3:00:3e:83:f2:
                    58:42:a8:b8:c4:cf:bc:4e:3e:f3:e1:fe:6c:c6:16:
                    1e:c8:9c:ee:1a:ec:a6:a8:cf:20:48:1c:3d:d3:78:
                    97:8d:3d:c1:81:f9:17:76:33
                Exponent: 65537 (0x10001)
        X509v3 extensions:
            Netscape Cert Type: 
                SSL Client
            X509v3 Key Usage: 
                Digital Signature, Non Repudiation, Key Encipherment
            Netscape Comment: 
                OpenSSL Generated Certificate
            X509v3 Subject Key Identifier: 
                6A:A0:60:B3:8E:7C:ED:11:BE:DF:A1:DF:B4:9B:30:FD:80:C3:C6:88
            X509v3 Authority Key Identifier: 
                keyid:1B:2A:6A:92:56:1C:05:5C:7D:00:EA:84:9A:27:5B:68:96:E7:7A:42
                DirName:/C=cn/ST=cn/L=cn/O=cn/OU=Certification Authority for tipfocus/CN=tipfocus/emailAddress=ca@tipfocus
                serial:95:3E:7B:CB:2B:8A:03:F9

            X509v3 Subject Alternative Name: 
                <EMPTY>

            X509v3 Issuer Alternative Name: 
                <EMPTY>

    Signature Algorithm: sha1WithRSAEncryption
         6d:58:f9:6f:18:38:7e:da:84:12:ba:d4:e8:dc:86:e6:da:a2:
         0c:df:43:11:4c:5d:fd:b3:82:c7:d4:a3:62:ca:d5:e2:36:c2:
         5c:75:ce:d4:dd:c3:7e:df:b1:6f:58:8e:f7:1e:44:f0:a0:01:
         a9:56:a2:73:e9:77:c4:03:c6:52:7d:5a:04:5a:55:63:a8:0b:
         68:76:c7:4d:c1:94:5d:90:47:b2:04:ee:fb:1c:61:c2:9c:b8:
         87:28:06:6d:8f:f6:15:b9:40:00:2e:da:eb:ae:06:63:c8:f0:
         99:47:9d:58:5f:a7:e5:b8:07:24:e3:60:6b:9f:47:51:5e:26:
         c6:57
-----BEGIN CERTIFICATE-----
MIIDhzCCAvCgAwIBAgIBATANBgkqhkiG9w0BAQUFADCBkjELMAkGA1UEBhMCY24x
CzAJBgNVBAgTAmNuMQswCQYDVQQHEwJjbjELMAkGA1UEChMCY24xLTArBgNVBAsT
JENlcnRpZmljYXRpb24gQXV0aG9yaXR5IGZvciB0aXBmb2N1czERMA8GA1UEAxMI
dGlwZm9jdXMxGjAYBgkqhkiG9w0BCQEWC2NhQHRpcGZvY3VzMB4XDTEzMDUwMjA4
MTgxMVoXDTE0MDUwMjA4MTgxMVowKzELMAkGA1UEBhMCREUxDzANBgNVBAcTBkJl
cmxpbjELMAkGA1UEAxMCb20wgZ8wDQYJKoZIhvcNAQEBBQADgY0AMIGJAoGBALbt
vL9ep6vdKZvJ/i4cOw4q3e7zuJrHtkl5rF6yYbjSVWud/KV8k0OdzFgZt+AIP0RO
9brzl1q77Cpy71D3Npw41bdy99+BwYG5cVWlPbgJUvrVQuMAPoPyWEKouMTPvE4+
8+H+bMYWHsic7hrspqjPIEgcPdN4l409wYH5F3YzAgMBAAGjggFRMIIBTTARBglg
hkgBhvhCAQEEBAMCB4AwCwYDVR0PBAQDAgXgMCwGCWCGSAGG+EIBDQQfFh1PcGVu
U1NMIEdlbmVyYXRlZCBDZXJ0aWZpY2F0ZTAdBgNVHQ4EFgQUaqBgs4587RG+36Hf
tJsw/YDDxogwgccGA1UdIwSBvzCBvIAUGypqklYcBVx9AOqEmidbaJbnekKhgZik
gZUwgZIxCzAJBgNVBAYTAmNuMQswCQYDVQQIEwJjbjELMAkGA1UEBxMCY24xCzAJ
BgNVBAoTAmNuMS0wKwYDVQQLEyRDZXJ0aWZpY2F0aW9uIEF1dGhvcml0eSBmb3Ig
dGlwZm9jdXMxETAPBgNVBAMTCHRpcGZvY3VzMRowGAYJKoZIhvcNAQkBFgtjYUB0
aXBmb2N1c4IJAJU+e8srigP5MAkGA1UdEQQCMAAwCQYDVR0SBAIwADANBgkqhkiG
9w0BAQUFAAOBgQBtWPlvGDh+2oQSutTo3Ibm2qIM30MRTF39s4LH1KNiytXiNsJc
dc7U3cN+37FvWI73HkTwoAGpVqJz6XfEA8ZSfVoEWlVjqAtodsdNwZRdkEeyBO77
HGHCnLiHKAZtj/YVuUAALtrrrgZjyPCZR51YX6fluAck42Brn0dRXibGVw==
-----END CERTIFICATE-----
