Certificate:
    Data:
        Version: 3 (0x2)
        Serial Number: 1 (0x1)
        Signature Algorithm: sha1WithRSAEncryption
        Issuer: C=cn, ST=beijing, L=haidian, O=dingpu, OU=Certification Authority for tipfocus, CN=tipfocus/emailAddress=ca@tipfocus
        Validity
            Not Before: May  2 18:26:24 2013 GMT
            Not After : May  2 18:26:24 2014 GMT
        Subject: C=cn, ST=beijing, L=haidian, O=dingpu, OU=Server certificate for tipfocus, CN=tipfocus/emailAddress=openvassd@tipfocus
        Subject Public Key Info:
            Public Key Algorithm: rsaEncryption
            RSA Public Key: (1024 bit)
                Modulus (1024 bit):
                    00:b0:b5:16:f8:10:1e:fa:32:78:d6:c3:a0:6d:31:
                    f4:c6:c9:20:7a:fb:2c:af:e3:d9:5b:47:0b:a0:30:
                    54:d3:63:da:c2:80:66:9f:7f:5b:ee:e8:ce:6e:33:
                    7e:f4:49:93:fd:ec:bd:d1:67:0f:83:b4:5f:cd:71:
                    98:bd:89:f4:1d:c5:9a:47:fe:cf:01:0d:63:fa:c9:
                    1d:89:9a:79:ad:5b:4d:e8:e9:e5:3f:ca:7a:40:7d:
                    fb:e2:96:8e:bd:2f:34:34:d2:c3:a2:b7:9e:65:df:
                    56:aa:75:06:3b:0b:8a:4e:50:e7:9d:f5:e2:c9:d0:
                    ed:7b:e2:77:00:e4:60:0b:d1
                Exponent: 65537 (0x10001)
        X509v3 extensions:
            Netscape Cert Type: 
                SSL Server
            X509v3 Key Usage: 
                Digital Signature, Non Repudiation, Key Encipherment
            Netscape Comment: 
                OpenSSL Generated Certificate
            X509v3 Subject Key Identifier: 
                3B:BA:BC:69:3C:29:24:0E:12:17:6B:4A:1A:BA:FA:DC:14:29:7A:0A
            X509v3 Authority Key Identifier: 
                keyid:E7:AF:E9:22:30:66:B0:D3:8F:CA:C9:A2:D1:E9:27:76:D5:15:6E:39
                DirName:/C=cn/ST=beijing/L=haidian/O=dingpu/OU=Certification Authority for tipfocus/CN=tipfocus/emailAddress=ca@tipfocus
                serial:DE:F8:31:CF:47:29:B6:8B

            X509v3 Subject Alternative Name: 
                email:openvassd@tipfocus
            X509v3 Issuer Alternative Name: 
                <EMPTY>

    Signature Algorithm: sha1WithRSAEncryption
        3b:f2:84:80:26:cc:82:ca:f9:00:57:24:40:9a:6b:15:83:99:
        88:0d:40:a2:4d:c8:e3:95:fd:a4:69:ec:ba:50:ed:a3:0c:c9:
        77:82:d0:ed:80:e5:8e:f9:ff:17:a3:84:70:e8:a4:4d:fc:f1:
        f8:9a:12:9e:7b:c3:15:4d:6e:61:10:d5:8b:ed:16:15:8b:92:
        78:c9:ea:a3:7a:c9:77:48:c5:37:6f:29:1d:9e:1f:61:81:9b:
        36:5e:6a:d2:3e:dc:42:85:af:93:ee:b3:2f:2a:38:72:c8:03:
        e4:76:c1:3a:61:6b:03:2e:c8:c0:4b:18:d9:61:9d:16:7d:63:
        bb:b4
-----BEGIN CERTIFICATE-----
MIIELzCCA5igAwIBAgIBATANBgkqhkiG9w0BAQUFADCBoDELMAkGA1UEBhMCY24x
EDAOBgNVBAgTB2JlaWppbmcxEDAOBgNVBAcTB2hhaWRpYW4xDzANBgNVBAoTBmRp
bmdwdTEtMCsGA1UECxMkQ2VydGlmaWNhdGlvbiBBdXRob3JpdHkgZm9yIHRpcGZv
Y3VzMREwDwYDVQQDEwh0aXBmb2N1czEaMBgGCSqGSIb3DQEJARYLY2FAdGlwZm9j
dXMwHhcNMTMwNTAyMTgyNjI0WhcNMTQwNTAyMTgyNjI0WjCBojELMAkGA1UEBhMC
Y24xEDAOBgNVBAgTB2JlaWppbmcxEDAOBgNVBAcTB2hhaWRpYW4xDzANBgNVBAoT
BmRpbmdwdTEoMCYGA1UECxMfU2VydmVyIGNlcnRpZmljYXRlIGZvciB0aXBmb2N1
czERMA8GA1UEAxMIdGlwZm9jdXMxITAfBgkqhkiG9w0BCQEWEm9wZW52YXNzZEB0
aXBmb2N1czCBnzANBgkqhkiG9w0BAQEFAAOBjQAwgYkCgYEAsLUW+BAe+jJ41sOg
bTH0xskgevssr+PZW0cLoDBU02PawoBmn39b7ujObjN+9EmT/ey90WcPg7RfzXGY
vYn0HcWaR/7PAQ1j+skdiZp5rVtN6OnlP8p6QH374paOvS80NNLDoreeZd9WqnUG
OwuKTlDnnfXiydDte+J3AORgC9ECAwEAAaOCAXMwggFvMBEGCWCGSAGG+EIBAQQE
AwIGQDALBgNVHQ8EBAMCBeAwLAYJYIZIAYb4QgENBB8WHU9wZW5TU0wgR2VuZXJh
dGVkIENlcnRpZmljYXRlMB0GA1UdDgQWBBQ7urxpPCkkDhIXa0oauvrcFCl6CjCB
1QYDVR0jBIHNMIHKgBTnr+kiMGaw04/KyaLR6Sd21RVuOaGBpqSBozCBoDELMAkG
A1UEBhMCY24xEDAOBgNVBAgTB2JlaWppbmcxEDAOBgNVBAcTB2hhaWRpYW4xDzAN
BgNVBAoTBmRpbmdwdTEtMCsGA1UECxMkQ2VydGlmaWNhdGlvbiBBdXRob3JpdHkg
Zm9yIHRpcGZvY3VzMREwDwYDVQQDEwh0aXBmb2N1czEaMBgGCSqGSIb3DQEJARYL
Y2FAdGlwZm9jdXOCCQDe+DHPRym2izAdBgNVHREEFjAUgRJvcGVudmFzc2RAdGlw
Zm9jdXMwCQYDVR0SBAIwADANBgkqhkiG9w0BAQUFAAOBgQA78oSAJsyCyvkAVyRA
mmsVg5mIDUCiTcjjlf2kaey6UO2jDMl3gtDtgOWO+f8Xo4Rw6KRN/PH4mhKee8MV
TW5hENWL7RYVi5J4yeqjesl3SMU3bykdnh9hgZs2XmrSPtxCha+T7rMvKjhyyAPk
dsE6YWsDLsjASxjZYZ0WfWO7tA==
-----END CERTIFICATE-----
