Certificate:
    Data:
        Version: 3 (0x2)
        Serial Number: 1 (0x1)
        Signature Algorithm: sha1WithRSAEncryption
        Issuer: C=DE, L=Berlin, O=OpenVAS Users United, OU=Certification Authority for tipfocus, CN=tipfocus/emailAddress=ca@tipfocus
        Validity
            Not Before: May  3 08:05:22 2013 GMT
            Not After : May  3 08:05:22 2014 GMT
        Subject: C=DE, L=Berlin, O=OpenVAS Users United, OU=Server certificate for tipfocus, CN=tipfocus/emailAddress=openvassd@tipfocus
        Subject Public Key Info:
            Public Key Algorithm: rsaEncryption
                Public-Key: (1024 bit)
                Modulus:
                    00:9d:ab:4d:b8:1e:7c:78:5a:cb:32:fe:d0:9b:07:
                    d7:cc:d5:99:39:c2:3e:23:f4:16:1e:7f:93:22:ff:
                    d8:7b:4b:ee:23:cf:7d:56:41:4e:3a:e0:5e:f5:77:
                    2c:7d:61:33:73:cb:5f:49:bb:12:20:e0:2d:2a:55:
                    cb:0b:a0:31:18:72:c2:38:f8:fd:a2:c3:37:60:5a:
                    45:d0:a8:76:20:3c:80:0a:37:c8:78:ff:fe:b0:4d:
                    18:8b:f0:29:6d:0d:dd:ee:73:65:af:e6:e6:92:5a:
                    46:61:72:9b:03:bb:b9:61:a2:c7:18:24:05:1a:bb:
                    03:3a:c8:a4:90:ff:64:8a:eb
                Exponent: 65537 (0x10001)
        X509v3 extensions:
            Netscape Cert Type: 
                SSL Server
            X509v3 Key Usage: 
                Digital Signature, Non Repudiation, Key Encipherment
            Netscape Comment: 
                OpenSSL Generated Certificate
            X509v3 Subject Key Identifier: 
                B9:6C:2A:78:56:E9:24:48:A4:4A:C8:B3:DD:18:09:DD:F0:73:E6:97
            X509v3 Authority Key Identifier: 
                keyid:7D:0D:D1:3F:94:AE:FF:14:30:8F:B8:84:B2:C7:DF:9B:E7:62:3C:5B
                DirName:/C=DE/L=Berlin/O=OpenVAS Users United/OU=Certification Authority for tipfocus/CN=tipfocus/emailAddress=ca@tipfocus
                serial:87:75:C0:70:BF:EC:0A:B1

            X509v3 Subject Alternative Name: 
                email:openvassd@tipfocus
            X509v3 Issuer Alternative Name: 
                <EMPTY>

    Signature Algorithm: sha1WithRSAEncryption
        9c:14:ac:d8:86:84:2c:74:4a:eb:94:d4:c4:de:17:05:a4:18:
        c2:ad:41:c2:b7:66:71:41:22:25:c5:77:bb:9c:c5:ff:b6:45:
        c7:94:12:5f:5e:d6:f6:1a:02:a1:10:7a:fa:9b:e0:14:b6:02:
        3a:f4:52:cd:bc:47:ab:29:ae:11:dd:b3:57:f7:4d:67:2b:52:
        6a:60:b5:11:ef:c3:1f:47:e4:16:d6:c6:52:54:1a:bb:70:2c:
        49:29:17:37:b6:20:39:6a:7e:40:5e:d6:db:da:4a:20:df:57:
        e7:82:62:65:2f:9a:d5:b9:28:60:1b:a8:6b:81:5b:45:dc:69:
        8c:7e
-----BEGIN CERTIFICATE-----
MIIEIDCCA4mgAwIBAgIBATANBgkqhkiG9w0BAQUFADCBmzELMAkGA1UEBhMCREUx
DzANBgNVBAcTBkJlcmxpbjEdMBsGA1UEChMUT3BlblZBUyBVc2VycyBVbml0ZWQx
LTArBgNVBAsTJENlcnRpZmljYXRpb24gQXV0aG9yaXR5IGZvciB0aXBmb2N1czER
MA8GA1UEAxMIdGlwZm9jdXMxGjAYBgkqhkiG9w0BCQEWC2NhQHRpcGZvY3VzMB4X
DTEzMDUwMzA4MDUyMloXDTE0MDUwMzA4MDUyMlowgZ0xCzAJBgNVBAYTAkRFMQ8w
DQYDVQQHEwZCZXJsaW4xHTAbBgNVBAoTFE9wZW5WQVMgVXNlcnMgVW5pdGVkMSgw
JgYDVQQLEx9TZXJ2ZXIgY2VydGlmaWNhdGUgZm9yIHRpcGZvY3VzMREwDwYDVQQD
Ewh0aXBmb2N1czEhMB8GCSqGSIb3DQEJARYSb3BlbnZhc3NkQHRpcGZvY3VzMIGf
MA0GCSqGSIb3DQEBAQUAA4GNADCBiQKBgQCdq024Hnx4Wssy/tCbB9fM1Zk5wj4j
9BYef5Mi/9h7S+4jz31WQU464F71dyx9YTNzy19JuxIg4C0qVcsLoDEYcsI4+P2i
wzdgWkXQqHYgPIAKN8h4//6wTRiL8CltDd3uc2Wv5uaSWkZhcpsDu7lhoscYJAUa
uwM6yKSQ/2SK6wIDAQABo4IBbjCCAWowEQYJYIZIAYb4QgEBBAQDAgZAMAsGA1Ud
DwQEAwIF4DAsBglghkgBhvhCAQ0EHxYdT3BlblNTTCBHZW5lcmF0ZWQgQ2VydGlm
aWNhdGUwHQYDVR0OBBYEFLlsKnhW6SRIpErIs90YCd3wc+aXMIHQBgNVHSMEgcgw
gcWAFH0N0T+Urv8UMI+4hLLH35vnYjxboYGhpIGeMIGbMQswCQYDVQQGEwJERTEP
MA0GA1UEBxMGQmVybGluMR0wGwYDVQQKExRPcGVuVkFTIFVzZXJzIFVuaXRlZDEt
MCsGA1UECxMkQ2VydGlmaWNhdGlvbiBBdXRob3JpdHkgZm9yIHRpcGZvY3VzMREw
DwYDVQQDEwh0aXBmb2N1czEaMBgGCSqGSIb3DQEJARYLY2FAdGlwZm9jdXOCCQCH
dcBwv+wKsTAdBgNVHREEFjAUgRJvcGVudmFzc2RAdGlwZm9jdXMwCQYDVR0SBAIw
ADANBgkqhkiG9w0BAQUFAAOBgQCcFKzYhoQsdErrlNTE3hcFpBjCrUHCt2ZxQSIl
xXe7nMX/tkXHlBJfXtb2GgKhEHr6m+AUtgI69FLNvEerKa4R3bNX901nK1JqYLUR
78MfR+QW1sZSVBq7cCxJKRc3tiA5an5AXtbb2kog31fngmJlL5rVuShgG6hrgVtF
3GmMfg==
-----END CERTIFICATE-----
